; Function Attrs: nounwind uwtable
define hidden void @zim_DateTime_sub(ptr noundef %0, ptr nocapture noundef writeonly %1) #0 {
  %3 = alloca ptr, align 8
  %4 = alloca ptr, align 8
  %5 = alloca %struct.zend_error_handling, align 8
  %6 = getelementptr inbounds i8, ptr %0, i64 32
  %7 = getelementptr inbounds i8, ptr %0, i64 44
  %8 = load i32, ptr %7, align 4
  %9 = getelementptr inbounds i8, ptr %0, i64 40
  %10 = load i8, ptr %9, align 8
  %11 = icmp eq i8 %10, 8
  %12 = select i1 %11, ptr %6, ptr null
  %13 = load ptr, ptr @date_ce_date, align 8
  %14 = load ptr, ptr @date_ce_interval, align 8
  %15 = call i32 (i32, ptr, ptr, ...) @zend_parse_method_parameters(i32 noundef %8, ptr noundef %12, ptr noundef nonnull @.str.45, ptr noundef nonnull %3, ptr noundef %13, ptr noundef nonnull %4, ptr noundef %14) #25
  %16 = icmp eq i32 %15, -1
  br i1 %16, label %17, label %20

17:                                               ; preds = %2
  %18 = load ptr, ptr getelementptr inbounds (%struct._zend_executor_globals, ptr @executor_globals, i64 0, i32 50), align 8
  %19 = icmp ne ptr %18, null
  call void @llvm.assume(i1 %19)
  br label %29

20:                                               ; preds = %2
  %21 = load ptr, ptr @date_ce_date_invalid_operation_exception, align 8
  call void @zend_replace_error_handling(i32 noundef 1, ptr noundef %21, ptr noundef nonnull %5) #25
  %22 = load ptr, ptr %3, align 8
  %23 = load ptr, ptr %4, align 8
  %.val = load ptr, ptr %22, align 8
  call fastcc void @php_date_sub(ptr %.val, ptr noundef %23)
  call void @zend_restore_error_handling(ptr noundef nonnull %5) #25
  %24 = load ptr, ptr %3, align 8
  %25 = load ptr, ptr %24, align 8
  %26 = load i32, ptr %25, align 4
  %27 = add i32 %26, 1
  store i32 %27, ptr %25, align 4
  store ptr %25, ptr %1, align 8
  %28 = getelementptr inbounds i8, ptr %1, i64 8
  store i32 776, ptr %28, align 8
  br label %29

29:                                               ; preds = %20, %17
  ret void
}